ARM GAS  C:\Users\lenovo\AppData\Local\Temp\cco9DH6X.s 			page 1


   1              		.cpu cortex-m3
   2              		.eabi_attribute 20, 1
   3              		.eabi_attribute 21, 1
   4              		.eabi_attribute 23, 3
   5              		.eabi_attribute 24, 1
   6              		.eabi_attribute 25, 1
   7              		.eabi_attribute 26, 1
   8              		.eabi_attribute 30, 1
   9              		.eabi_attribute 34, 1
  10              		.eabi_attribute 18, 4
  11              		.file	"keyboard.c"
  12              		.text
  13              	.Ltext0:
  14              		.cfi_sections	.debug_frame
  15              		.section	.rodata.KEY_Scan.str1.4,"aMS",%progbits,1
  16              		.align	2
  17              	.LC0:
  18 0000 28312C31 		.ascii	"(1,1)\000"
  18      2900
  19 0006 0000     		.align	2
  20              	.LC1:
  21 0008 28322C31 		.ascii	"(2,1)\000"
  21      2900
  22 000e 0000     		.align	2
  23              	.LC2:
  24 0010 28332C31 		.ascii	"(3,1)\000"
  24      2900
  25 0016 0000     		.align	2
  26              	.LC3:
  27 0018 28342C31 		.ascii	"(4,1)\000"
  27      2900
  28 001e 0000     		.align	2
  29              	.LC4:
  30 0020 28312C32 		.ascii	"(1,2)\000"
  30      2900
  31 0026 0000     		.align	2
  32              	.LC5:
  33 0028 28322C32 		.ascii	"(2,2)\000"
  33      2900
  34 002e 0000     		.align	2
  35              	.LC6:
  36 0030 28332C32 		.ascii	"(3,2)\000"
  36      2900
  37 0036 0000     		.align	2
  38              	.LC7:
  39 0038 28342C32 		.ascii	"(4,2)\000"
  39      2900
  40 003e 0000     		.align	2
  41              	.LC8:
  42 0040 28312C33 		.ascii	"(1,3)\000"
  42      2900
  43 0046 0000     		.align	2
  44              	.LC9:
  45 0048 28322C33 		.ascii	"(2,3)\000"
  45      2900
  46 004e 0000     		.align	2
  47              	.LC10:
ARM GAS  C:\Users\lenovo\AppData\Local\Temp\cco9DH6X.s 			page 2


  48 0050 28332C33 		.ascii	"(3,3)\000"
  48      2900
  49 0056 0000     		.align	2
  50              	.LC11:
  51 0058 28342C33 		.ascii	"(4,3)\000"
  51      2900
  52 005e 0000     		.align	2
  53              	.LC12:
  54 0060 28312C34 		.ascii	"(1,4)\000"
  54      2900
  55 0066 0000     		.align	2
  56              	.LC13:
  57 0068 28322C34 		.ascii	"(2,4)\000"
  57      2900
  58 006e 0000     		.align	2
  59              	.LC14:
  60 0070 28332C34 		.ascii	"(3,4)\000"
  60      2900
  61 0076 0000     		.align	2
  62              	.LC15:
  63 0078 28342C34 		.ascii	"(4,4)\000"
  63      2900
  64              		.section	.text.KEY_Scan,"ax",%progbits
  65              		.align	1
  66              		.global	KEY_Scan
  67              		.arch armv7-m
  68              		.syntax unified
  69              		.thumb
  70              		.thumb_func
  71              		.fpu softvfp
  73              	KEY_Scan:
  74              	.LFB65:
  75              		.file 1 "Core/Src/keyboard.c"
   1:Core/Src/keyboard.c **** 
   2:Core/Src/keyboard.c **** #include "keyboard.h"
   3:Core/Src/keyboard.c **** #include "gpio.h"
   4:Core/Src/keyboard.c **** #include "oled.h"
   5:Core/Src/keyboard.c **** void  KEY_Scan()
   6:Core/Src/keyboard.c **** {
  76              		.loc 1 6 1 view -0
  77              		.cfi_startproc
  78              		@ args = 0, pretend = 0, frame = 0
  79              		@ frame_needed = 0, uses_anonymous_args = 0
  80 0000 10B5     		push	{r4, lr}
  81              	.LCFI0:
  82              		.cfi_def_cfa_offset 8
  83              		.cfi_offset 4, -8
  84              		.cfi_offset 14, -4
   7:Core/Src/keyboard.c ****     HAL_GPIO_WritePin(GPIOA,C1_Pin,RESET);    
  85              		.loc 1 7 5 view .LVU1
  86 0002 C74C     		ldr	r4, .L51
  87 0004 0022     		movs	r2, #0
  88 0006 0821     		movs	r1, #8
  89 0008 2046     		mov	r0, r4
  90 000a FFF7FEFF 		bl	HAL_GPIO_WritePin
  91              	.LVL0:
   8:Core/Src/keyboard.c ****     if(HAL_GPIO_ReadPin(GPIOA,R1_Pin)==0)
ARM GAS  C:\Users\lenovo\AppData\Local\Temp\cco9DH6X.s 			page 3


  92              		.loc 1 8 5 view .LVU2
  93              		.loc 1 8 8 is_stmt 0 view .LVU3
  94 000e 1021     		movs	r1, #16
  95 0010 2046     		mov	r0, r4
  96 0012 FFF7FEFF 		bl	HAL_GPIO_ReadPin
  97              	.LVL1:
  98              		.loc 1 8 7 view .LVU4
  99 0016 0028     		cmp	r0, #0
 100 0018 00F09080 		beq	.L35
 101              	.L2:
   9:Core/Src/keyboard.c ****     {
  10:Core/Src/keyboard.c ****         OLED_Clear();
  11:Core/Src/keyboard.c ****         HAL_Delay(20);
  12:Core/Src/keyboard.c ****         OLED_ShowString(39,4,"(1,1)",16);
  13:Core/Src/keyboard.c ****         HAL_GPIO_TogglePin(GPIOB,GPIO_PIN_1);
  14:Core/Src/keyboard.c ****          //HAL_GPIO_TogglePin(GPIOB,GPIO_PIN_1);
  15:Core/Src/keyboard.c ****         while(HAL_GPIO_ReadPin(GPIOA, R1_Pin) == 0);
  16:Core/Src/keyboard.c ****     }
  17:Core/Src/keyboard.c ****     if(HAL_GPIO_ReadPin(GPIOA,R2_Pin)==0)
 102              		.loc 1 17 5 is_stmt 1 view .LVU5
 103              		.loc 1 17 8 is_stmt 0 view .LVU6
 104 001c 2021     		movs	r1, #32
 105 001e C048     		ldr	r0, .L51
 106 0020 FFF7FEFF 		bl	HAL_GPIO_ReadPin
 107              	.LVL2:
 108              		.loc 1 17 7 view .LVU7
 109 0024 0028     		cmp	r0, #0
 110 0026 00F09F80 		beq	.L36
 111              	.L4:
  18:Core/Src/keyboard.c ****     {
  19:Core/Src/keyboard.c ****         OLED_Clear();
  20:Core/Src/keyboard.c ****         HAL_Delay(20);
  21:Core/Src/keyboard.c ****         OLED_ShowString(39,4,"(2,1)",16);
  22:Core/Src/keyboard.c ****         HAL_GPIO_TogglePin(GPIOB,GPIO_PIN_1);
  23:Core/Src/keyboard.c ****          //HAL_GPIO_TogglePin(GPIOB,GPIO_PIN_1);
  24:Core/Src/keyboard.c ****         while(HAL_GPIO_ReadPin(GPIOA, R2_Pin) == 0);
  25:Core/Src/keyboard.c ****     }
  26:Core/Src/keyboard.c ****     if(HAL_GPIO_ReadPin(GPIOA,R3_Pin)==0)
 112              		.loc 1 26 5 is_stmt 1 view .LVU8
 113              		.loc 1 26 8 is_stmt 0 view .LVU9
 114 002a 4021     		movs	r1, #64
 115 002c BC48     		ldr	r0, .L51
 116 002e FFF7FEFF 		bl	HAL_GPIO_ReadPin
 117              	.LVL3:
 118              		.loc 1 26 7 view .LVU10
 119 0032 0028     		cmp	r0, #0
 120 0034 00F0AE80 		beq	.L37
 121              	.L6:
  27:Core/Src/keyboard.c ****     {
  28:Core/Src/keyboard.c ****          OLED_Clear();
  29:Core/Src/keyboard.c ****         HAL_Delay(20);
  30:Core/Src/keyboard.c ****         OLED_ShowString(39,4,"(3,1)",16);
  31:Core/Src/keyboard.c ****         HAL_GPIO_TogglePin(GPIOB,GPIO_PIN_1);
  32:Core/Src/keyboard.c ****          //HAL_GPIO_TogglePin(GPIOB,GPIO_PIN_1);
  33:Core/Src/keyboard.c ****         while(HAL_GPIO_ReadPin(GPIOA, R3_Pin) == 0);
  34:Core/Src/keyboard.c ****     }
  35:Core/Src/keyboard.c ****     if(HAL_GPIO_ReadPin(GPIOA,R4_Pin)==0)
ARM GAS  C:\Users\lenovo\AppData\Local\Temp\cco9DH6X.s 			page 4


 122              		.loc 1 35 5 is_stmt 1 view .LVU11
 123              		.loc 1 35 8 is_stmt 0 view .LVU12
 124 0038 8021     		movs	r1, #128
 125 003a B948     		ldr	r0, .L51
 126 003c FFF7FEFF 		bl	HAL_GPIO_ReadPin
 127              	.LVL4:
 128              		.loc 1 35 7 view .LVU13
 129 0040 0028     		cmp	r0, #0
 130 0042 00F0BD80 		beq	.L38
 131              	.L8:
  36:Core/Src/keyboard.c ****     {
  37:Core/Src/keyboard.c ****          OLED_Clear();
  38:Core/Src/keyboard.c ****         HAL_Delay(20);
  39:Core/Src/keyboard.c ****         OLED_ShowString(39,4,"(4,1)",16);
  40:Core/Src/keyboard.c ****         HAL_GPIO_TogglePin(GPIOB,GPIO_PIN_1);
  41:Core/Src/keyboard.c ****         // HAL_GPIO_TogglePin(GPIOB,GPIO_PIN_1);
  42:Core/Src/keyboard.c ****         while(HAL_GPIO_ReadPin(GPIOA, R4_Pin) == 0);
  43:Core/Src/keyboard.c ****     }
  44:Core/Src/keyboard.c **** 
  45:Core/Src/keyboard.c ****     HAL_GPIO_WritePin(GPIOA,C1_Pin,SET);
 132              		.loc 1 45 5 is_stmt 1 view .LVU14
 133 0046 B64C     		ldr	r4, .L51
 134 0048 0122     		movs	r2, #1
 135 004a 0821     		movs	r1, #8
 136 004c 2046     		mov	r0, r4
 137 004e FFF7FEFF 		bl	HAL_GPIO_WritePin
 138              	.LVL5:
  46:Core/Src/keyboard.c ****     HAL_GPIO_WritePin(GPIOA,C2_Pin,RESET);
 139              		.loc 1 46 5 view .LVU15
 140 0052 0022     		movs	r2, #0
 141 0054 0421     		movs	r1, #4
 142 0056 2046     		mov	r0, r4
 143 0058 FFF7FEFF 		bl	HAL_GPIO_WritePin
 144              	.LVL6:
  47:Core/Src/keyboard.c ****     if(HAL_GPIO_ReadPin(GPIOA,R1_Pin)==0)
 145              		.loc 1 47 5 view .LVU16
 146              		.loc 1 47 8 is_stmt 0 view .LVU17
 147 005c 1021     		movs	r1, #16
 148 005e 2046     		mov	r0, r4
 149 0060 FFF7FEFF 		bl	HAL_GPIO_ReadPin
 150              	.LVL7:
 151              		.loc 1 47 7 view .LVU18
 152 0064 0028     		cmp	r0, #0
 153 0066 00F0C180 		beq	.L39
 154              	.L10:
  48:Core/Src/keyboard.c ****     {
  49:Core/Src/keyboard.c ****         OLED_Clear();
  50:Core/Src/keyboard.c ****         HAL_Delay(20);
  51:Core/Src/keyboard.c ****         OLED_ShowString(39,4,"(1,2)",16);
  52:Core/Src/keyboard.c ****         HAL_GPIO_TogglePin(GPIOB,GPIO_PIN_1);
  53:Core/Src/keyboard.c ****         
  54:Core/Src/keyboard.c ****         // HAL_GPIO_TogglePin(GPIOB,GPIO_PIN_1);
  55:Core/Src/keyboard.c ****         while(HAL_GPIO_ReadPin(GPIOA, R1_Pin) == 0);
  56:Core/Src/keyboard.c ****     }
  57:Core/Src/keyboard.c ****     if(HAL_GPIO_ReadPin(GPIOA,R2_Pin)==0)
 155              		.loc 1 57 5 is_stmt 1 view .LVU19
 156              		.loc 1 57 8 is_stmt 0 view .LVU20
ARM GAS  C:\Users\lenovo\AppData\Local\Temp\cco9DH6X.s 			page 5


 157 006a 2021     		movs	r1, #32
 158 006c AC48     		ldr	r0, .L51
 159 006e FFF7FEFF 		bl	HAL_GPIO_ReadPin
 160              	.LVL8:
 161              		.loc 1 57 7 view .LVU21
 162 0072 0028     		cmp	r0, #0
 163 0074 00F0D080 		beq	.L40
 164              	.L12:
  58:Core/Src/keyboard.c ****     {
  59:Core/Src/keyboard.c ****         OLED_Clear();
  60:Core/Src/keyboard.c ****         HAL_Delay(20);
  61:Core/Src/keyboard.c ****         OLED_ShowString(39,4,"(2,2)",16);
  62:Core/Src/keyboard.c ****         HAL_GPIO_TogglePin(GPIOB,GPIO_PIN_1);
  63:Core/Src/keyboard.c ****        
  64:Core/Src/keyboard.c ****         // HAL_GPIO_TogglePin(GPIOB,GPIO_PIN_1);
  65:Core/Src/keyboard.c ****         while(HAL_GPIO_ReadPin(GPIOA, R2_Pin) == 0);
  66:Core/Src/keyboard.c ****     }
  67:Core/Src/keyboard.c ****     if(HAL_GPIO_ReadPin(GPIOA,R3_Pin)==0)
 165              		.loc 1 67 5 is_stmt 1 view .LVU22
 166              		.loc 1 67 8 is_stmt 0 view .LVU23
 167 0078 4021     		movs	r1, #64
 168 007a A948     		ldr	r0, .L51
 169 007c FFF7FEFF 		bl	HAL_GPIO_ReadPin
 170              	.LVL9:
 171              		.loc 1 67 7 view .LVU24
 172 0080 0028     		cmp	r0, #0
 173 0082 00F0DF80 		beq	.L41
 174              	.L14:
  68:Core/Src/keyboard.c ****     {
  69:Core/Src/keyboard.c ****          OLED_Clear();
  70:Core/Src/keyboard.c ****         HAL_Delay(20);
  71:Core/Src/keyboard.c ****         OLED_ShowString(39,4,"(3,2)",16);
  72:Core/Src/keyboard.c ****         HAL_GPIO_TogglePin(GPIOB,GPIO_PIN_1);
  73:Core/Src/keyboard.c ****         
  74:Core/Src/keyboard.c ****         // HAL_GPIO_TogglePin(GPIOB,GPIO_PIN_1);
  75:Core/Src/keyboard.c ****         while(HAL_GPIO_ReadPin(GPIOA, R3_Pin) == 0);
  76:Core/Src/keyboard.c ****     }
  77:Core/Src/keyboard.c ****     if(HAL_GPIO_ReadPin(GPIOA,R4_Pin)==0)
 175              		.loc 1 77 5 is_stmt 1 view .LVU25
 176              		.loc 1 77 8 is_stmt 0 view .LVU26
 177 0086 8021     		movs	r1, #128
 178 0088 A548     		ldr	r0, .L51
 179 008a FFF7FEFF 		bl	HAL_GPIO_ReadPin
 180              	.LVL10:
 181              		.loc 1 77 7 view .LVU27
 182 008e 0028     		cmp	r0, #0
 183 0090 00F0EE80 		beq	.L42
 184              	.L16:
  78:Core/Src/keyboard.c ****     {
  79:Core/Src/keyboard.c ****          OLED_Clear();
  80:Core/Src/keyboard.c ****         HAL_Delay(20);
  81:Core/Src/keyboard.c ****         OLED_ShowString(39,4,"(4,2)",16);
  82:Core/Src/keyboard.c ****         HAL_GPIO_TogglePin(GPIOB,GPIO_PIN_1);
  83:Core/Src/keyboard.c ****        
  84:Core/Src/keyboard.c ****          //HAL_GPIO_TogglePin(GPIOB,GPIO_PIN_1);
  85:Core/Src/keyboard.c ****         while(HAL_GPIO_ReadPin(GPIOA, R4_Pin) == 0);
  86:Core/Src/keyboard.c ****     }
ARM GAS  C:\Users\lenovo\AppData\Local\Temp\cco9DH6X.s 			page 6


  87:Core/Src/keyboard.c ****     HAL_GPIO_WritePin(GPIOA,C2_Pin,SET);
 185              		.loc 1 87 5 is_stmt 1 view .LVU28
 186 0094 A24C     		ldr	r4, .L51
 187 0096 0122     		movs	r2, #1
 188 0098 0421     		movs	r1, #4
 189 009a 2046     		mov	r0, r4
 190 009c FFF7FEFF 		bl	HAL_GPIO_WritePin
 191              	.LVL11:
  88:Core/Src/keyboard.c ****     HAL_GPIO_WritePin(GPIOA,C3_Pin,RESET);
 192              		.loc 1 88 5 view .LVU29
 193 00a0 0022     		movs	r2, #0
 194 00a2 0221     		movs	r1, #2
 195 00a4 2046     		mov	r0, r4
 196 00a6 FFF7FEFF 		bl	HAL_GPIO_WritePin
 197              	.LVL12:
  89:Core/Src/keyboard.c **** 
  90:Core/Src/keyboard.c ****     /*
  91:Core/Src/keyboard.c ****     
  92:Core/Src/keyboard.c ****     
  93:Core/Src/keyboard.c ****     */
  94:Core/Src/keyboard.c ****      if(HAL_GPIO_ReadPin(GPIOA,R1_Pin)==0)
 198              		.loc 1 94 6 view .LVU30
 199              		.loc 1 94 9 is_stmt 0 view .LVU31
 200 00aa 1021     		movs	r1, #16
 201 00ac 2046     		mov	r0, r4
 202 00ae FFF7FEFF 		bl	HAL_GPIO_ReadPin
 203              	.LVL13:
 204              		.loc 1 94 8 view .LVU32
 205 00b2 0028     		cmp	r0, #0
 206 00b4 00F0F280 		beq	.L43
 207              	.L18:
  95:Core/Src/keyboard.c ****     {
  96:Core/Src/keyboard.c ****         OLED_Clear();
  97:Core/Src/keyboard.c ****         HAL_Delay(20);
  98:Core/Src/keyboard.c ****         OLED_ShowString(39,4,"(1,3)",16);
  99:Core/Src/keyboard.c ****         HAL_GPIO_TogglePin(GPIOB,GPIO_PIN_1);
 100:Core/Src/keyboard.c ****         
 101:Core/Src/keyboard.c ****         // HAL_GPIO_TogglePin(GPIOB,GPIO_PIN_1);
 102:Core/Src/keyboard.c ****         while(HAL_GPIO_ReadPin(GPIOA, R1_Pin) == 0);
 103:Core/Src/keyboard.c ****     }
 104:Core/Src/keyboard.c ****     if(HAL_GPIO_ReadPin(GPIOA,R2_Pin)==0)
 208              		.loc 1 104 5 is_stmt 1 view .LVU33
 209              		.loc 1 104 8 is_stmt 0 view .LVU34
 210 00b8 2021     		movs	r1, #32
 211 00ba 9948     		ldr	r0, .L51
 212 00bc FFF7FEFF 		bl	HAL_GPIO_ReadPin
 213              	.LVL14:
 214              		.loc 1 104 7 view .LVU35
 215 00c0 0028     		cmp	r0, #0
 216 00c2 00F00181 		beq	.L44
 217              	.L20:
 105:Core/Src/keyboard.c ****     {
 106:Core/Src/keyboard.c ****         OLED_Clear();
 107:Core/Src/keyboard.c ****         HAL_Delay(20);
 108:Core/Src/keyboard.c ****         OLED_ShowString(39,4,"(2,3)",16);
 109:Core/Src/keyboard.c ****         HAL_GPIO_TogglePin(GPIOB,GPIO_PIN_1);
 110:Core/Src/keyboard.c ****        
ARM GAS  C:\Users\lenovo\AppData\Local\Temp\cco9DH6X.s 			page 7


 111:Core/Src/keyboard.c ****         // HAL_GPIO_TogglePin(GPIOB,GPIO_PIN_1);
 112:Core/Src/keyboard.c ****         while(HAL_GPIO_ReadPin(GPIOA, R2_Pin) == 0);
 113:Core/Src/keyboard.c ****     }
 114:Core/Src/keyboard.c ****     if(HAL_GPIO_ReadPin(GPIOA,R3_Pin)==0)
 218              		.loc 1 114 5 is_stmt 1 view .LVU36
 219              		.loc 1 114 8 is_stmt 0 view .LVU37
 220 00c6 4021     		movs	r1, #64
 221 00c8 9548     		ldr	r0, .L51
 222 00ca FFF7FEFF 		bl	HAL_GPIO_ReadPin
 223              	.LVL15:
 224              		.loc 1 114 7 view .LVU38
 225 00ce 0028     		cmp	r0, #0
 226 00d0 00F01081 		beq	.L45
 227              	.L22:
 115:Core/Src/keyboard.c ****     {
 116:Core/Src/keyboard.c ****          OLED_Clear();
 117:Core/Src/keyboard.c ****         HAL_Delay(20);
 118:Core/Src/keyboard.c ****         OLED_ShowString(39,4,"(3,3)",16);
 119:Core/Src/keyboard.c ****         HAL_GPIO_TogglePin(GPIOB,GPIO_PIN_1);
 120:Core/Src/keyboard.c ****         
 121:Core/Src/keyboard.c ****          //HAL_GPIO_TogglePin(GPIOB,GPIO_PIN_1);
 122:Core/Src/keyboard.c ****         while(HAL_GPIO_ReadPin(GPIOA, R3_Pin) == 0);
 123:Core/Src/keyboard.c ****     }
 124:Core/Src/keyboard.c ****     if(HAL_GPIO_ReadPin(GPIOA,R4_Pin)==0)
 228              		.loc 1 124 5 is_stmt 1 view .LVU39
 229              		.loc 1 124 8 is_stmt 0 view .LVU40
 230 00d4 8021     		movs	r1, #128
 231 00d6 9248     		ldr	r0, .L51
 232 00d8 FFF7FEFF 		bl	HAL_GPIO_ReadPin
 233              	.LVL16:
 234              		.loc 1 124 7 view .LVU41
 235 00dc 0028     		cmp	r0, #0
 236 00de 00F03981 		beq	.L46
 237              	.L24:
 125:Core/Src/keyboard.c ****     {
 126:Core/Src/keyboard.c ****          OLED_Clear();
 127:Core/Src/keyboard.c ****         HAL_Delay(20);
 128:Core/Src/keyboard.c ****         OLED_ShowString(39,4,"(4,3)",16);
 129:Core/Src/keyboard.c ****         HAL_GPIO_TogglePin(GPIOB,GPIO_PIN_1);
 130:Core/Src/keyboard.c ****         
 131:Core/Src/keyboard.c ****          //HAL_GPIO_TogglePin(GPIOB,GPIO_PIN_1);
 132:Core/Src/keyboard.c ****         while(HAL_GPIO_ReadPin(GPIOA, R4_Pin) == 0);
 133:Core/Src/keyboard.c ****     }
 134:Core/Src/keyboard.c **** 
 135:Core/Src/keyboard.c **** 
 136:Core/Src/keyboard.c **** 
 137:Core/Src/keyboard.c **** 
 138:Core/Src/keyboard.c ****     HAL_GPIO_WritePin(GPIOA,C3_Pin,SET);
 238              		.loc 1 138 5 is_stmt 1 view .LVU42
 239 00e2 8F4C     		ldr	r4, .L51
 240 00e4 0122     		movs	r2, #1
 241 00e6 0221     		movs	r1, #2
 242 00e8 2046     		mov	r0, r4
 243 00ea FFF7FEFF 		bl	HAL_GPIO_WritePin
 244              	.LVL17:
 139:Core/Src/keyboard.c ****     HAL_GPIO_WritePin(GPIOA,C4_Pin,RESET);
 245              		.loc 1 139 5 view .LVU43
ARM GAS  C:\Users\lenovo\AppData\Local\Temp\cco9DH6X.s 			page 8


 246 00ee 0022     		movs	r2, #0
 247 00f0 0121     		movs	r1, #1
 248 00f2 2046     		mov	r0, r4
 249 00f4 FFF7FEFF 		bl	HAL_GPIO_WritePin
 250              	.LVL18:
 140:Core/Src/keyboard.c **** 
 141:Core/Src/keyboard.c ****     /*
 142:Core/Src/keyboard.c ****     
 143:Core/Src/keyboard.c ****     
 144:Core/Src/keyboard.c ****     */
 145:Core/Src/keyboard.c ****      if(HAL_GPIO_ReadPin(GPIOA,R1_Pin)==0)
 251              		.loc 1 145 6 view .LVU44
 252              		.loc 1 145 9 is_stmt 0 view .LVU45
 253 00f8 1021     		movs	r1, #16
 254 00fa 2046     		mov	r0, r4
 255 00fc FFF7FEFF 		bl	HAL_GPIO_ReadPin
 256              	.LVL19:
 257              		.loc 1 145 8 view .LVU46
 258 0100 0028     		cmp	r0, #0
 259 0102 00F03D81 		beq	.L47
 260              	.L26:
 146:Core/Src/keyboard.c ****     {
 147:Core/Src/keyboard.c ****         OLED_Clear();
 148:Core/Src/keyboard.c ****         HAL_Delay(20);
 149:Core/Src/keyboard.c ****         OLED_ShowString(39,4,"(1,4)",16);
 150:Core/Src/keyboard.c ****         HAL_GPIO_TogglePin(GPIOB,GPIO_PIN_1);
 151:Core/Src/keyboard.c ****          
 152:Core/Src/keyboard.c ****          
 153:Core/Src/keyboard.c ****         while(HAL_GPIO_ReadPin(GPIOA, R1_Pin) == 0);
 154:Core/Src/keyboard.c ****     }
 155:Core/Src/keyboard.c ****     if(HAL_GPIO_ReadPin(GPIOA,R2_Pin)==0)
 261              		.loc 1 155 5 is_stmt 1 view .LVU47
 262              		.loc 1 155 8 is_stmt 0 view .LVU48
 263 0106 2021     		movs	r1, #32
 264 0108 8548     		ldr	r0, .L51
 265 010a FFF7FEFF 		bl	HAL_GPIO_ReadPin
 266              	.LVL20:
 267              		.loc 1 155 7 view .LVU49
 268 010e 0028     		cmp	r0, #0
 269 0110 00F04C81 		beq	.L48
 270              	.L28:
 156:Core/Src/keyboard.c ****     {
 157:Core/Src/keyboard.c ****         OLED_Clear();
 158:Core/Src/keyboard.c ****         HAL_Delay(20);
 159:Core/Src/keyboard.c ****         OLED_ShowString(39,4,"(2,4)",16);
 160:Core/Src/keyboard.c ****         HAL_GPIO_TogglePin(GPIOB,GPIO_PIN_1);
 161:Core/Src/keyboard.c ****          
 162:Core/Src/keyboard.c ****          
 163:Core/Src/keyboard.c ****         while(HAL_GPIO_ReadPin(GPIOA, R2_Pin) == 0);
 164:Core/Src/keyboard.c ****     }
 165:Core/Src/keyboard.c ****     if(HAL_GPIO_ReadPin(GPIOA,R3_Pin)==0)
 271              		.loc 1 165 5 is_stmt 1 view .LVU50
 272              		.loc 1 165 8 is_stmt 0 view .LVU51
 273 0114 4021     		movs	r1, #64
 274 0116 8248     		ldr	r0, .L51
 275 0118 FFF7FEFF 		bl	HAL_GPIO_ReadPin
 276              	.LVL21:
ARM GAS  C:\Users\lenovo\AppData\Local\Temp\cco9DH6X.s 			page 9


 277              		.loc 1 165 7 view .LVU52
 278 011c 0028     		cmp	r0, #0
 279 011e 00F05B81 		beq	.L49
 280              	.L30:
 166:Core/Src/keyboard.c ****     {
 167:Core/Src/keyboard.c ****          OLED_Clear();
 168:Core/Src/keyboard.c ****         HAL_Delay(20);
 169:Core/Src/keyboard.c ****         OLED_ShowString(39,4,"(3,4)",16);
 170:Core/Src/keyboard.c ****         HAL_GPIO_TogglePin(GPIOB,GPIO_PIN_1);
 171:Core/Src/keyboard.c ****          
 172:Core/Src/keyboard.c ****          
 173:Core/Src/keyboard.c ****         while(HAL_GPIO_ReadPin(GPIOA, R3_Pin) == 0);
 174:Core/Src/keyboard.c ****     }
 175:Core/Src/keyboard.c ****     if(HAL_GPIO_ReadPin(GPIOA,R4_Pin)==0)
 281              		.loc 1 175 5 is_stmt 1 view .LVU53
 282              		.loc 1 175 8 is_stmt 0 view .LVU54
 283 0122 8021     		movs	r1, #128
 284 0124 7E48     		ldr	r0, .L51
 285 0126 FFF7FEFF 		bl	HAL_GPIO_ReadPin
 286              	.LVL22:
 287              		.loc 1 175 7 view .LVU55
 288 012a 0028     		cmp	r0, #0
 289 012c 00F06A81 		beq	.L50
 290              	.L32:
 176:Core/Src/keyboard.c ****     {
 177:Core/Src/keyboard.c ****          OLED_Clear();
 178:Core/Src/keyboard.c ****         HAL_Delay(20);
 179:Core/Src/keyboard.c ****         OLED_ShowString(39,4,"(4,4)",16);
 180:Core/Src/keyboard.c ****         HAL_GPIO_TogglePin(GPIOB,GPIO_PIN_1);
 181:Core/Src/keyboard.c ****          
 182:Core/Src/keyboard.c ****         while(HAL_GPIO_ReadPin(GPIOA, R4_Pin) == 0);
 183:Core/Src/keyboard.c ****     }
 184:Core/Src/keyboard.c ****    
 185:Core/Src/keyboard.c **** 
 186:Core/Src/keyboard.c ****     HAL_GPIO_WritePin(GPIOA,C4_Pin,SET);
 291              		.loc 1 186 5 is_stmt 1 view .LVU56
 292 0130 0122     		movs	r2, #1
 293 0132 1146     		mov	r1, r2
 294 0134 7A48     		ldr	r0, .L51
 295 0136 FFF7FEFF 		bl	HAL_GPIO_WritePin
 296              	.LVL23:
 187:Core/Src/keyboard.c **** 
 188:Core/Src/keyboard.c **** 
 189:Core/Src/keyboard.c **** 
 190:Core/Src/keyboard.c **** }
 297              		.loc 1 190 1 is_stmt 0 view .LVU57
 298 013a 10BD     		pop	{r4, pc}
 299              	.L35:
  10:Core/Src/keyboard.c ****         HAL_Delay(20);
 300              		.loc 1 10 9 is_stmt 1 view .LVU58
 301 013c FFF7FEFF 		bl	OLED_Clear
 302              	.LVL24:
  11:Core/Src/keyboard.c ****         OLED_ShowString(39,4,"(1,1)",16);
 303              		.loc 1 11 9 view .LVU59
 304 0140 1420     		movs	r0, #20
 305 0142 FFF7FEFF 		bl	HAL_Delay
 306              	.LVL25:
ARM GAS  C:\Users\lenovo\AppData\Local\Temp\cco9DH6X.s 			page 10


  12:Core/Src/keyboard.c ****         HAL_GPIO_TogglePin(GPIOB,GPIO_PIN_1);
 307              		.loc 1 12 9 view .LVU60
 308 0146 1023     		movs	r3, #16
 309 0148 764A     		ldr	r2, .L51+4
 310 014a 0421     		movs	r1, #4
 311 014c 2720     		movs	r0, #39
 312 014e FFF7FEFF 		bl	OLED_ShowString
 313              	.LVL26:
  13:Core/Src/keyboard.c ****          //HAL_GPIO_TogglePin(GPIOB,GPIO_PIN_1);
 314              		.loc 1 13 9 view .LVU61
 315 0152 0221     		movs	r1, #2
 316 0154 7448     		ldr	r0, .L51+8
 317 0156 FFF7FEFF 		bl	HAL_GPIO_TogglePin
 318              	.LVL27:
  15:Core/Src/keyboard.c ****     }
 319              		.loc 1 15 9 view .LVU62
 320              	.L3:
  15:Core/Src/keyboard.c ****     }
 321              		.loc 1 15 52 discriminator 1 view .LVU63
  15:Core/Src/keyboard.c ****     }
 322              		.loc 1 15 14 discriminator 1 view .LVU64
  15:Core/Src/keyboard.c ****     }
 323              		.loc 1 15 15 is_stmt 0 discriminator 1 view .LVU65
 324 015a 1021     		movs	r1, #16
 325 015c 7048     		ldr	r0, .L51
 326 015e FFF7FEFF 		bl	HAL_GPIO_ReadPin
 327              	.LVL28:
  15:Core/Src/keyboard.c ****     }
 328              		.loc 1 15 14 discriminator 1 view .LVU66
 329 0162 0028     		cmp	r0, #0
 330 0164 F9D0     		beq	.L3
 331 0166 59E7     		b	.L2
 332              	.L36:
  19:Core/Src/keyboard.c ****         HAL_Delay(20);
 333              		.loc 1 19 9 is_stmt 1 view .LVU67
 334 0168 FFF7FEFF 		bl	OLED_Clear
 335              	.LVL29:
  20:Core/Src/keyboard.c ****         OLED_ShowString(39,4,"(2,1)",16);
 336              		.loc 1 20 9 view .LVU68
 337 016c 1420     		movs	r0, #20
 338 016e FFF7FEFF 		bl	HAL_Delay
 339              	.LVL30:
  21:Core/Src/keyboard.c ****         HAL_GPIO_TogglePin(GPIOB,GPIO_PIN_1);
 340              		.loc 1 21 9 view .LVU69
 341 0172 1023     		movs	r3, #16
 342 0174 6D4A     		ldr	r2, .L51+12
 343 0176 0421     		movs	r1, #4
 344 0178 2720     		movs	r0, #39
 345 017a FFF7FEFF 		bl	OLED_ShowString
 346              	.LVL31:
  22:Core/Src/keyboard.c ****          //HAL_GPIO_TogglePin(GPIOB,GPIO_PIN_1);
 347              		.loc 1 22 9 view .LVU70
 348 017e 0221     		movs	r1, #2
 349 0180 6948     		ldr	r0, .L51+8
 350 0182 FFF7FEFF 		bl	HAL_GPIO_TogglePin
 351              	.LVL32:
  24:Core/Src/keyboard.c ****     }
ARM GAS  C:\Users\lenovo\AppData\Local\Temp\cco9DH6X.s 			page 11


 352              		.loc 1 24 9 view .LVU71
 353              	.L5:
  24:Core/Src/keyboard.c ****     }
 354              		.loc 1 24 52 discriminator 1 view .LVU72
  24:Core/Src/keyboard.c ****     }
 355              		.loc 1 24 14 discriminator 1 view .LVU73
  24:Core/Src/keyboard.c ****     }
 356              		.loc 1 24 15 is_stmt 0 discriminator 1 view .LVU74
 357 0186 2021     		movs	r1, #32
 358 0188 6548     		ldr	r0, .L51
 359 018a FFF7FEFF 		bl	HAL_GPIO_ReadPin
 360              	.LVL33:
  24:Core/Src/keyboard.c ****     }
 361              		.loc 1 24 14 discriminator 1 view .LVU75
 362 018e 0028     		cmp	r0, #0
 363 0190 F9D0     		beq	.L5
 364 0192 4AE7     		b	.L4
 365              	.L37:
  28:Core/Src/keyboard.c ****         HAL_Delay(20);
 366              		.loc 1 28 10 is_stmt 1 view .LVU76
 367 0194 FFF7FEFF 		bl	OLED_Clear
 368              	.LVL34:
  29:Core/Src/keyboard.c ****         OLED_ShowString(39,4,"(3,1)",16);
 369              		.loc 1 29 9 view .LVU77
 370 0198 1420     		movs	r0, #20
 371 019a FFF7FEFF 		bl	HAL_Delay
 372              	.LVL35:
  30:Core/Src/keyboard.c ****         HAL_GPIO_TogglePin(GPIOB,GPIO_PIN_1);
 373              		.loc 1 30 9 view .LVU78
 374 019e 1023     		movs	r3, #16
 375 01a0 634A     		ldr	r2, .L51+16
 376 01a2 0421     		movs	r1, #4
 377 01a4 2720     		movs	r0, #39
 378 01a6 FFF7FEFF 		bl	OLED_ShowString
 379              	.LVL36:
  31:Core/Src/keyboard.c ****          //HAL_GPIO_TogglePin(GPIOB,GPIO_PIN_1);
 380              		.loc 1 31 9 view .LVU79
 381 01aa 0221     		movs	r1, #2
 382 01ac 5E48     		ldr	r0, .L51+8
 383 01ae FFF7FEFF 		bl	HAL_GPIO_TogglePin
 384              	.LVL37:
  33:Core/Src/keyboard.c ****     }
 385              		.loc 1 33 9 view .LVU80
 386              	.L7:
  33:Core/Src/keyboard.c ****     }
 387              		.loc 1 33 52 discriminator 1 view .LVU81
  33:Core/Src/keyboard.c ****     }
 388              		.loc 1 33 14 discriminator 1 view .LVU82
  33:Core/Src/keyboard.c ****     }
 389              		.loc 1 33 15 is_stmt 0 discriminator 1 view .LVU83
 390 01b2 4021     		movs	r1, #64
 391 01b4 5A48     		ldr	r0, .L51
 392 01b6 FFF7FEFF 		bl	HAL_GPIO_ReadPin
 393              	.LVL38:
  33:Core/Src/keyboard.c ****     }
 394              		.loc 1 33 14 discriminator 1 view .LVU84
 395 01ba 0028     		cmp	r0, #0
ARM GAS  C:\Users\lenovo\AppData\Local\Temp\cco9DH6X.s 			page 12


 396 01bc F9D0     		beq	.L7
 397 01be 3BE7     		b	.L6
 398              	.L38:
  37:Core/Src/keyboard.c ****         HAL_Delay(20);
 399              		.loc 1 37 10 is_stmt 1 view .LVU85
 400 01c0 FFF7FEFF 		bl	OLED_Clear
 401              	.LVL39:
  38:Core/Src/keyboard.c ****         OLED_ShowString(39,4,"(4,1)",16);
 402              		.loc 1 38 9 view .LVU86
 403 01c4 1420     		movs	r0, #20
 404 01c6 FFF7FEFF 		bl	HAL_Delay
 405              	.LVL40:
  39:Core/Src/keyboard.c ****         HAL_GPIO_TogglePin(GPIOB,GPIO_PIN_1);
 406              		.loc 1 39 9 view .LVU87
 407 01ca 1023     		movs	r3, #16
 408 01cc 594A     		ldr	r2, .L51+20
 409 01ce 0421     		movs	r1, #4
 410 01d0 2720     		movs	r0, #39
 411 01d2 FFF7FEFF 		bl	OLED_ShowString
 412              	.LVL41:
  40:Core/Src/keyboard.c ****         // HAL_GPIO_TogglePin(GPIOB,GPIO_PIN_1);
 413              		.loc 1 40 9 view .LVU88
 414 01d6 0221     		movs	r1, #2
 415 01d8 5348     		ldr	r0, .L51+8
 416 01da FFF7FEFF 		bl	HAL_GPIO_TogglePin
 417              	.LVL42:
  42:Core/Src/keyboard.c ****     }
 418              		.loc 1 42 9 view .LVU89
 419              	.L9:
  42:Core/Src/keyboard.c ****     }
 420              		.loc 1 42 52 discriminator 1 view .LVU90
  42:Core/Src/keyboard.c ****     }
 421              		.loc 1 42 14 discriminator 1 view .LVU91
  42:Core/Src/keyboard.c ****     }
 422              		.loc 1 42 15 is_stmt 0 discriminator 1 view .LVU92
 423 01de 8021     		movs	r1, #128
 424 01e0 4F48     		ldr	r0, .L51
 425 01e2 FFF7FEFF 		bl	HAL_GPIO_ReadPin
 426              	.LVL43:
  42:Core/Src/keyboard.c ****     }
 427              		.loc 1 42 14 discriminator 1 view .LVU93
 428 01e6 0028     		cmp	r0, #0
 429 01e8 F9D0     		beq	.L9
 430 01ea 2CE7     		b	.L8
 431              	.L39:
  49:Core/Src/keyboard.c ****         HAL_Delay(20);
 432              		.loc 1 49 9 is_stmt 1 view .LVU94
 433 01ec FFF7FEFF 		bl	OLED_Clear
 434              	.LVL44:
  50:Core/Src/keyboard.c ****         OLED_ShowString(39,4,"(1,2)",16);
 435              		.loc 1 50 9 view .LVU95
 436 01f0 1420     		movs	r0, #20
 437 01f2 FFF7FEFF 		bl	HAL_Delay
 438              	.LVL45:
  51:Core/Src/keyboard.c ****         HAL_GPIO_TogglePin(GPIOB,GPIO_PIN_1);
 439              		.loc 1 51 9 view .LVU96
 440 01f6 1023     		movs	r3, #16
ARM GAS  C:\Users\lenovo\AppData\Local\Temp\cco9DH6X.s 			page 13


 441 01f8 4F4A     		ldr	r2, .L51+24
 442 01fa 0421     		movs	r1, #4
 443 01fc 2720     		movs	r0, #39
 444 01fe FFF7FEFF 		bl	OLED_ShowString
 445              	.LVL46:
  52:Core/Src/keyboard.c ****         
 446              		.loc 1 52 9 view .LVU97
 447 0202 0221     		movs	r1, #2
 448 0204 4848     		ldr	r0, .L51+8
 449 0206 FFF7FEFF 		bl	HAL_GPIO_TogglePin
 450              	.LVL47:
  55:Core/Src/keyboard.c ****     }
 451              		.loc 1 55 9 view .LVU98
 452              	.L11:
  55:Core/Src/keyboard.c ****     }
 453              		.loc 1 55 52 discriminator 1 view .LVU99
  55:Core/Src/keyboard.c ****     }
 454              		.loc 1 55 14 discriminator 1 view .LVU100
  55:Core/Src/keyboard.c ****     }
 455              		.loc 1 55 15 is_stmt 0 discriminator 1 view .LVU101
 456 020a 1021     		movs	r1, #16
 457 020c 4448     		ldr	r0, .L51
 458 020e FFF7FEFF 		bl	HAL_GPIO_ReadPin
 459              	.LVL48:
  55:Core/Src/keyboard.c ****     }
 460              		.loc 1 55 14 discriminator 1 view .LVU102
 461 0212 0028     		cmp	r0, #0
 462 0214 F9D0     		beq	.L11
 463 0216 28E7     		b	.L10
 464              	.L40:
  59:Core/Src/keyboard.c ****         HAL_Delay(20);
 465              		.loc 1 59 9 is_stmt 1 view .LVU103
 466 0218 FFF7FEFF 		bl	OLED_Clear
 467              	.LVL49:
  60:Core/Src/keyboard.c ****         OLED_ShowString(39,4,"(2,2)",16);
 468              		.loc 1 60 9 view .LVU104
 469 021c 1420     		movs	r0, #20
 470 021e FFF7FEFF 		bl	HAL_Delay
 471              	.LVL50:
  61:Core/Src/keyboard.c ****         HAL_GPIO_TogglePin(GPIOB,GPIO_PIN_1);
 472              		.loc 1 61 9 view .LVU105
 473 0222 1023     		movs	r3, #16
 474 0224 454A     		ldr	r2, .L51+28
 475 0226 0421     		movs	r1, #4
 476 0228 2720     		movs	r0, #39
 477 022a FFF7FEFF 		bl	OLED_ShowString
 478              	.LVL51:
  62:Core/Src/keyboard.c ****        
 479              		.loc 1 62 9 view .LVU106
 480 022e 0221     		movs	r1, #2
 481 0230 3D48     		ldr	r0, .L51+8
 482 0232 FFF7FEFF 		bl	HAL_GPIO_TogglePin
 483              	.LVL52:
  65:Core/Src/keyboard.c ****     }
 484              		.loc 1 65 9 view .LVU107
 485              	.L13:
  65:Core/Src/keyboard.c ****     }
ARM GAS  C:\Users\lenovo\AppData\Local\Temp\cco9DH6X.s 			page 14


 486              		.loc 1 65 52 discriminator 1 view .LVU108
  65:Core/Src/keyboard.c ****     }
 487              		.loc 1 65 14 discriminator 1 view .LVU109
  65:Core/Src/keyboard.c ****     }
 488              		.loc 1 65 15 is_stmt 0 discriminator 1 view .LVU110
 489 0236 2021     		movs	r1, #32
 490 0238 3948     		ldr	r0, .L51
 491 023a FFF7FEFF 		bl	HAL_GPIO_ReadPin
 492              	.LVL53:
  65:Core/Src/keyboard.c ****     }
 493              		.loc 1 65 14 discriminator 1 view .LVU111
 494 023e 0028     		cmp	r0, #0
 495 0240 F9D0     		beq	.L13
 496 0242 19E7     		b	.L12
 497              	.L41:
  69:Core/Src/keyboard.c ****         HAL_Delay(20);
 498              		.loc 1 69 10 is_stmt 1 view .LVU112
 499 0244 FFF7FEFF 		bl	OLED_Clear
 500              	.LVL54:
  70:Core/Src/keyboard.c ****         OLED_ShowString(39,4,"(3,2)",16);
 501              		.loc 1 70 9 view .LVU113
 502 0248 1420     		movs	r0, #20
 503 024a FFF7FEFF 		bl	HAL_Delay
 504              	.LVL55:
  71:Core/Src/keyboard.c ****         HAL_GPIO_TogglePin(GPIOB,GPIO_PIN_1);
 505              		.loc 1 71 9 view .LVU114
 506 024e 1023     		movs	r3, #16
 507 0250 3B4A     		ldr	r2, .L51+32
 508 0252 0421     		movs	r1, #4
 509 0254 2720     		movs	r0, #39
 510 0256 FFF7FEFF 		bl	OLED_ShowString
 511              	.LVL56:
  72:Core/Src/keyboard.c ****         
 512              		.loc 1 72 9 view .LVU115
 513 025a 0221     		movs	r1, #2
 514 025c 3248     		ldr	r0, .L51+8
 515 025e FFF7FEFF 		bl	HAL_GPIO_TogglePin
 516              	.LVL57:
  75:Core/Src/keyboard.c ****     }
 517              		.loc 1 75 9 view .LVU116
 518              	.L15:
  75:Core/Src/keyboard.c ****     }
 519              		.loc 1 75 52 discriminator 1 view .LVU117
  75:Core/Src/keyboard.c ****     }
 520              		.loc 1 75 14 discriminator 1 view .LVU118
  75:Core/Src/keyboard.c ****     }
 521              		.loc 1 75 15 is_stmt 0 discriminator 1 view .LVU119
 522 0262 4021     		movs	r1, #64
 523 0264 2E48     		ldr	r0, .L51
 524 0266 FFF7FEFF 		bl	HAL_GPIO_ReadPin
 525              	.LVL58:
  75:Core/Src/keyboard.c ****     }
 526              		.loc 1 75 14 discriminator 1 view .LVU120
 527 026a 0028     		cmp	r0, #0
 528 026c F9D0     		beq	.L15
 529 026e 0AE7     		b	.L14
 530              	.L42:
ARM GAS  C:\Users\lenovo\AppData\Local\Temp\cco9DH6X.s 			page 15


  79:Core/Src/keyboard.c ****         HAL_Delay(20);
 531              		.loc 1 79 10 is_stmt 1 view .LVU121
 532 0270 FFF7FEFF 		bl	OLED_Clear
 533              	.LVL59:
  80:Core/Src/keyboard.c ****         OLED_ShowString(39,4,"(4,2)",16);
 534              		.loc 1 80 9 view .LVU122
 535 0274 1420     		movs	r0, #20
 536 0276 FFF7FEFF 		bl	HAL_Delay
 537              	.LVL60:
  81:Core/Src/keyboard.c ****         HAL_GPIO_TogglePin(GPIOB,GPIO_PIN_1);
 538              		.loc 1 81 9 view .LVU123
 539 027a 1023     		movs	r3, #16
 540 027c 314A     		ldr	r2, .L51+36
 541 027e 0421     		movs	r1, #4
 542 0280 2720     		movs	r0, #39
 543 0282 FFF7FEFF 		bl	OLED_ShowString
 544              	.LVL61:
  82:Core/Src/keyboard.c ****        
 545              		.loc 1 82 9 view .LVU124
 546 0286 0221     		movs	r1, #2
 547 0288 2748     		ldr	r0, .L51+8
 548 028a FFF7FEFF 		bl	HAL_GPIO_TogglePin
 549              	.LVL62:
  85:Core/Src/keyboard.c ****     }
 550              		.loc 1 85 9 view .LVU125
 551              	.L17:
  85:Core/Src/keyboard.c ****     }
 552              		.loc 1 85 52 discriminator 1 view .LVU126
  85:Core/Src/keyboard.c ****     }
 553              		.loc 1 85 14 discriminator 1 view .LVU127
  85:Core/Src/keyboard.c ****     }
 554              		.loc 1 85 15 is_stmt 0 discriminator 1 view .LVU128
 555 028e 8021     		movs	r1, #128
 556 0290 2348     		ldr	r0, .L51
 557 0292 FFF7FEFF 		bl	HAL_GPIO_ReadPin
 558              	.LVL63:
  85:Core/Src/keyboard.c ****     }
 559              		.loc 1 85 14 discriminator 1 view .LVU129
 560 0296 0028     		cmp	r0, #0
 561 0298 F9D0     		beq	.L17
 562 029a FBE6     		b	.L16
 563              	.L43:
  96:Core/Src/keyboard.c ****         HAL_Delay(20);
 564              		.loc 1 96 9 is_stmt 1 view .LVU130
 565 029c FFF7FEFF 		bl	OLED_Clear
 566              	.LVL64:
  97:Core/Src/keyboard.c ****         OLED_ShowString(39,4,"(1,3)",16);
 567              		.loc 1 97 9 view .LVU131
 568 02a0 1420     		movs	r0, #20
 569 02a2 FFF7FEFF 		bl	HAL_Delay
 570              	.LVL65:
  98:Core/Src/keyboard.c ****         HAL_GPIO_TogglePin(GPIOB,GPIO_PIN_1);
 571              		.loc 1 98 9 view .LVU132
 572 02a6 1023     		movs	r3, #16
 573 02a8 274A     		ldr	r2, .L51+40
 574 02aa 0421     		movs	r1, #4
 575 02ac 2720     		movs	r0, #39
ARM GAS  C:\Users\lenovo\AppData\Local\Temp\cco9DH6X.s 			page 16


 576 02ae FFF7FEFF 		bl	OLED_ShowString
 577              	.LVL66:
  99:Core/Src/keyboard.c ****         
 578              		.loc 1 99 9 view .LVU133
 579 02b2 0221     		movs	r1, #2
 580 02b4 1C48     		ldr	r0, .L51+8
 581 02b6 FFF7FEFF 		bl	HAL_GPIO_TogglePin
 582              	.LVL67:
 102:Core/Src/keyboard.c ****     }
 583              		.loc 1 102 9 view .LVU134
 584              	.L19:
 102:Core/Src/keyboard.c ****     }
 585              		.loc 1 102 52 discriminator 1 view .LVU135
 102:Core/Src/keyboard.c ****     }
 586              		.loc 1 102 14 discriminator 1 view .LVU136
 102:Core/Src/keyboard.c ****     }
 587              		.loc 1 102 15 is_stmt 0 discriminator 1 view .LVU137
 588 02ba 1021     		movs	r1, #16
 589 02bc 1848     		ldr	r0, .L51
 590 02be FFF7FEFF 		bl	HAL_GPIO_ReadPin
 591              	.LVL68:
 102:Core/Src/keyboard.c ****     }
 592              		.loc 1 102 14 discriminator 1 view .LVU138
 593 02c2 0028     		cmp	r0, #0
 594 02c4 F9D0     		beq	.L19
 595 02c6 F7E6     		b	.L18
 596              	.L44:
 106:Core/Src/keyboard.c ****         HAL_Delay(20);
 597              		.loc 1 106 9 is_stmt 1 view .LVU139
 598 02c8 FFF7FEFF 		bl	OLED_Clear
 599              	.LVL69:
 107:Core/Src/keyboard.c ****         OLED_ShowString(39,4,"(2,3)",16);
 600              		.loc 1 107 9 view .LVU140
 601 02cc 1420     		movs	r0, #20
 602 02ce FFF7FEFF 		bl	HAL_Delay
 603              	.LVL70:
 108:Core/Src/keyboard.c ****         HAL_GPIO_TogglePin(GPIOB,GPIO_PIN_1);
 604              		.loc 1 108 9 view .LVU141
 605 02d2 1023     		movs	r3, #16
 606 02d4 1D4A     		ldr	r2, .L51+44
 607 02d6 0421     		movs	r1, #4
 608 02d8 2720     		movs	r0, #39
 609 02da FFF7FEFF 		bl	OLED_ShowString
 610              	.LVL71:
 109:Core/Src/keyboard.c ****        
 611              		.loc 1 109 9 view .LVU142
 612 02de 0221     		movs	r1, #2
 613 02e0 1148     		ldr	r0, .L51+8
 614 02e2 FFF7FEFF 		bl	HAL_GPIO_TogglePin
 615              	.LVL72:
 112:Core/Src/keyboard.c ****     }
 616              		.loc 1 112 9 view .LVU143
 617              	.L21:
 112:Core/Src/keyboard.c ****     }
 618              		.loc 1 112 52 discriminator 1 view .LVU144
 112:Core/Src/keyboard.c ****     }
 619              		.loc 1 112 14 discriminator 1 view .LVU145
ARM GAS  C:\Users\lenovo\AppData\Local\Temp\cco9DH6X.s 			page 17


 112:Core/Src/keyboard.c ****     }
 620              		.loc 1 112 15 is_stmt 0 discriminator 1 view .LVU146
 621 02e6 2021     		movs	r1, #32
 622 02e8 0D48     		ldr	r0, .L51
 623 02ea FFF7FEFF 		bl	HAL_GPIO_ReadPin
 624              	.LVL73:
 112:Core/Src/keyboard.c ****     }
 625              		.loc 1 112 14 discriminator 1 view .LVU147
 626 02ee 0028     		cmp	r0, #0
 627 02f0 F9D0     		beq	.L21
 628 02f2 E8E6     		b	.L20
 629              	.L45:
 116:Core/Src/keyboard.c ****         HAL_Delay(20);
 630              		.loc 1 116 10 is_stmt 1 view .LVU148
 631 02f4 FFF7FEFF 		bl	OLED_Clear
 632              	.LVL74:
 117:Core/Src/keyboard.c ****         OLED_ShowString(39,4,"(3,3)",16);
 633              		.loc 1 117 9 view .LVU149
 634 02f8 1420     		movs	r0, #20
 635 02fa FFF7FEFF 		bl	HAL_Delay
 636              	.LVL75:
 118:Core/Src/keyboard.c ****         HAL_GPIO_TogglePin(GPIOB,GPIO_PIN_1);
 637              		.loc 1 118 9 view .LVU150
 638 02fe 1023     		movs	r3, #16
 639 0300 134A     		ldr	r2, .L51+48
 640 0302 0421     		movs	r1, #4
 641 0304 2720     		movs	r0, #39
 642 0306 FFF7FEFF 		bl	OLED_ShowString
 643              	.LVL76:
 119:Core/Src/keyboard.c ****         
 644              		.loc 1 119 9 view .LVU151
 645 030a 0221     		movs	r1, #2
 646 030c 0648     		ldr	r0, .L51+8
 647 030e FFF7FEFF 		bl	HAL_GPIO_TogglePin
 648              	.LVL77:
 122:Core/Src/keyboard.c ****     }
 649              		.loc 1 122 9 view .LVU152
 650              	.L23:
 122:Core/Src/keyboard.c ****     }
 651              		.loc 1 122 52 discriminator 1 view .LVU153
 122:Core/Src/keyboard.c ****     }
 652              		.loc 1 122 14 discriminator 1 view .LVU154
 122:Core/Src/keyboard.c ****     }
 653              		.loc 1 122 15 is_stmt 0 discriminator 1 view .LVU155
 654 0312 4021     		movs	r1, #64
 655 0314 0248     		ldr	r0, .L51
 656 0316 FFF7FEFF 		bl	HAL_GPIO_ReadPin
 657              	.LVL78:
 122:Core/Src/keyboard.c ****     }
 658              		.loc 1 122 14 discriminator 1 view .LVU156
 659 031a 0028     		cmp	r0, #0
 660 031c F9D0     		beq	.L23
 661 031e D9E6     		b	.L22
 662              	.L52:
 663              		.align	2
 664              	.L51:
 665 0320 00080140 		.word	1073809408
ARM GAS  C:\Users\lenovo\AppData\Local\Temp\cco9DH6X.s 			page 18


 666 0324 00000000 		.word	.LC0
 667 0328 000C0140 		.word	1073810432
 668 032c 08000000 		.word	.LC1
 669 0330 10000000 		.word	.LC2
 670 0334 18000000 		.word	.LC3
 671 0338 20000000 		.word	.LC4
 672 033c 28000000 		.word	.LC5
 673 0340 30000000 		.word	.LC6
 674 0344 38000000 		.word	.LC7
 675 0348 40000000 		.word	.LC8
 676 034c 48000000 		.word	.LC9
 677 0350 50000000 		.word	.LC10
 678              	.L46:
 126:Core/Src/keyboard.c ****         HAL_Delay(20);
 679              		.loc 1 126 10 is_stmt 1 view .LVU157
 680 0354 FFF7FEFF 		bl	OLED_Clear
 681              	.LVL79:
 127:Core/Src/keyboard.c ****         OLED_ShowString(39,4,"(4,3)",16);
 682              		.loc 1 127 9 view .LVU158
 683 0358 1420     		movs	r0, #20
 684 035a FFF7FEFF 		bl	HAL_Delay
 685              	.LVL80:
 128:Core/Src/keyboard.c ****         HAL_GPIO_TogglePin(GPIOB,GPIO_PIN_1);
 686              		.loc 1 128 9 view .LVU159
 687 035e 1023     		movs	r3, #16
 688 0360 334A     		ldr	r2, .L53
 689 0362 0421     		movs	r1, #4
 690 0364 2720     		movs	r0, #39
 691 0366 FFF7FEFF 		bl	OLED_ShowString
 692              	.LVL81:
 129:Core/Src/keyboard.c ****         
 693              		.loc 1 129 9 view .LVU160
 694 036a 0221     		movs	r1, #2
 695 036c 3148     		ldr	r0, .L53+4
 696 036e FFF7FEFF 		bl	HAL_GPIO_TogglePin
 697              	.LVL82:
 132:Core/Src/keyboard.c ****     }
 698              		.loc 1 132 9 view .LVU161
 699              	.L25:
 132:Core/Src/keyboard.c ****     }
 700              		.loc 1 132 52 discriminator 1 view .LVU162
 132:Core/Src/keyboard.c ****     }
 701              		.loc 1 132 14 discriminator 1 view .LVU163
 132:Core/Src/keyboard.c ****     }
 702              		.loc 1 132 15 is_stmt 0 discriminator 1 view .LVU164
 703 0372 8021     		movs	r1, #128
 704 0374 3048     		ldr	r0, .L53+8
 705 0376 FFF7FEFF 		bl	HAL_GPIO_ReadPin
 706              	.LVL83:
 132:Core/Src/keyboard.c ****     }
 707              		.loc 1 132 14 discriminator 1 view .LVU165
 708 037a 0028     		cmp	r0, #0
 709 037c F9D0     		beq	.L25
 710 037e B0E6     		b	.L24
 711              	.L47:
 147:Core/Src/keyboard.c ****         HAL_Delay(20);
 712              		.loc 1 147 9 is_stmt 1 view .LVU166
ARM GAS  C:\Users\lenovo\AppData\Local\Temp\cco9DH6X.s 			page 19


 713 0380 FFF7FEFF 		bl	OLED_Clear
 714              	.LVL84:
 148:Core/Src/keyboard.c ****         OLED_ShowString(39,4,"(1,4)",16);
 715              		.loc 1 148 9 view .LVU167
 716 0384 1420     		movs	r0, #20
 717 0386 FFF7FEFF 		bl	HAL_Delay
 718              	.LVL85:
 149:Core/Src/keyboard.c ****         HAL_GPIO_TogglePin(GPIOB,GPIO_PIN_1);
 719              		.loc 1 149 9 view .LVU168
 720 038a 1023     		movs	r3, #16
 721 038c 2B4A     		ldr	r2, .L53+12
 722 038e 0421     		movs	r1, #4
 723 0390 2720     		movs	r0, #39
 724 0392 FFF7FEFF 		bl	OLED_ShowString
 725              	.LVL86:
 150:Core/Src/keyboard.c ****          
 726              		.loc 1 150 9 view .LVU169
 727 0396 0221     		movs	r1, #2
 728 0398 2648     		ldr	r0, .L53+4
 729 039a FFF7FEFF 		bl	HAL_GPIO_TogglePin
 730              	.LVL87:
 153:Core/Src/keyboard.c ****     }
 731              		.loc 1 153 9 view .LVU170
 732              	.L27:
 153:Core/Src/keyboard.c ****     }
 733              		.loc 1 153 52 discriminator 1 view .LVU171
 153:Core/Src/keyboard.c ****     }
 734              		.loc 1 153 14 discriminator 1 view .LVU172
 153:Core/Src/keyboard.c ****     }
 735              		.loc 1 153 15 is_stmt 0 discriminator 1 view .LVU173
 736 039e 1021     		movs	r1, #16
 737 03a0 2548     		ldr	r0, .L53+8
 738 03a2 FFF7FEFF 		bl	HAL_GPIO_ReadPin
 739              	.LVL88:
 153:Core/Src/keyboard.c ****     }
 740              		.loc 1 153 14 discriminator 1 view .LVU174
 741 03a6 0028     		cmp	r0, #0
 742 03a8 F9D0     		beq	.L27
 743 03aa ACE6     		b	.L26
 744              	.L48:
 157:Core/Src/keyboard.c ****         HAL_Delay(20);
 745              		.loc 1 157 9 is_stmt 1 view .LVU175
 746 03ac FFF7FEFF 		bl	OLED_Clear
 747              	.LVL89:
 158:Core/Src/keyboard.c ****         OLED_ShowString(39,4,"(2,4)",16);
 748              		.loc 1 158 9 view .LVU176
 749 03b0 1420     		movs	r0, #20
 750 03b2 FFF7FEFF 		bl	HAL_Delay
 751              	.LVL90:
 159:Core/Src/keyboard.c ****         HAL_GPIO_TogglePin(GPIOB,GPIO_PIN_1);
 752              		.loc 1 159 9 view .LVU177
 753 03b6 1023     		movs	r3, #16
 754 03b8 214A     		ldr	r2, .L53+16
 755 03ba 0421     		movs	r1, #4
 756 03bc 2720     		movs	r0, #39
 757 03be FFF7FEFF 		bl	OLED_ShowString
 758              	.LVL91:
ARM GAS  C:\Users\lenovo\AppData\Local\Temp\cco9DH6X.s 			page 20


 160:Core/Src/keyboard.c ****          
 759              		.loc 1 160 9 view .LVU178
 760 03c2 0221     		movs	r1, #2
 761 03c4 1B48     		ldr	r0, .L53+4
 762 03c6 FFF7FEFF 		bl	HAL_GPIO_TogglePin
 763              	.LVL92:
 163:Core/Src/keyboard.c ****     }
 764              		.loc 1 163 9 view .LVU179
 765              	.L29:
 163:Core/Src/keyboard.c ****     }
 766              		.loc 1 163 52 discriminator 1 view .LVU180
 163:Core/Src/keyboard.c ****     }
 767              		.loc 1 163 14 discriminator 1 view .LVU181
 163:Core/Src/keyboard.c ****     }
 768              		.loc 1 163 15 is_stmt 0 discriminator 1 view .LVU182
 769 03ca 2021     		movs	r1, #32
 770 03cc 1A48     		ldr	r0, .L53+8
 771 03ce FFF7FEFF 		bl	HAL_GPIO_ReadPin
 772              	.LVL93:
 163:Core/Src/keyboard.c ****     }
 773              		.loc 1 163 14 discriminator 1 view .LVU183
 774 03d2 0028     		cmp	r0, #0
 775 03d4 F9D0     		beq	.L29
 776 03d6 9DE6     		b	.L28
 777              	.L49:
 167:Core/Src/keyboard.c ****         HAL_Delay(20);
 778              		.loc 1 167 10 is_stmt 1 view .LVU184
 779 03d8 FFF7FEFF 		bl	OLED_Clear
 780              	.LVL94:
 168:Core/Src/keyboard.c ****         OLED_ShowString(39,4,"(3,4)",16);
 781              		.loc 1 168 9 view .LVU185
 782 03dc 1420     		movs	r0, #20
 783 03de FFF7FEFF 		bl	HAL_Delay
 784              	.LVL95:
 169:Core/Src/keyboard.c ****         HAL_GPIO_TogglePin(GPIOB,GPIO_PIN_1);
 785              		.loc 1 169 9 view .LVU186
 786 03e2 1023     		movs	r3, #16
 787 03e4 174A     		ldr	r2, .L53+20
 788 03e6 0421     		movs	r1, #4
 789 03e8 2720     		movs	r0, #39
 790 03ea FFF7FEFF 		bl	OLED_ShowString
 791              	.LVL96:
 170:Core/Src/keyboard.c ****          
 792              		.loc 1 170 9 view .LVU187
 793 03ee 0221     		movs	r1, #2
 794 03f0 1048     		ldr	r0, .L53+4
 795 03f2 FFF7FEFF 		bl	HAL_GPIO_TogglePin
 796              	.LVL97:
 173:Core/Src/keyboard.c ****     }
 797              		.loc 1 173 9 view .LVU188
 798              	.L31:
 173:Core/Src/keyboard.c ****     }
 799              		.loc 1 173 52 discriminator 1 view .LVU189
 173:Core/Src/keyboard.c ****     }
 800              		.loc 1 173 14 discriminator 1 view .LVU190
 173:Core/Src/keyboard.c ****     }
 801              		.loc 1 173 15 is_stmt 0 discriminator 1 view .LVU191
ARM GAS  C:\Users\lenovo\AppData\Local\Temp\cco9DH6X.s 			page 21


 802 03f6 4021     		movs	r1, #64
 803 03f8 0F48     		ldr	r0, .L53+8
 804 03fa FFF7FEFF 		bl	HAL_GPIO_ReadPin
 805              	.LVL98:
 173:Core/Src/keyboard.c ****     }
 806              		.loc 1 173 14 discriminator 1 view .LVU192
 807 03fe 0028     		cmp	r0, #0
 808 0400 F9D0     		beq	.L31
 809 0402 8EE6     		b	.L30
 810              	.L50:
 177:Core/Src/keyboard.c ****         HAL_Delay(20);
 811              		.loc 1 177 10 is_stmt 1 view .LVU193
 812 0404 FFF7FEFF 		bl	OLED_Clear
 813              	.LVL99:
 178:Core/Src/keyboard.c ****         OLED_ShowString(39,4,"(4,4)",16);
 814              		.loc 1 178 9 view .LVU194
 815 0408 1420     		movs	r0, #20
 816 040a FFF7FEFF 		bl	HAL_Delay
 817              	.LVL100:
 179:Core/Src/keyboard.c ****         HAL_GPIO_TogglePin(GPIOB,GPIO_PIN_1);
 818              		.loc 1 179 9 view .LVU195
 819 040e 1023     		movs	r3, #16
 820 0410 0D4A     		ldr	r2, .L53+24
 821 0412 0421     		movs	r1, #4
 822 0414 2720     		movs	r0, #39
 823 0416 FFF7FEFF 		bl	OLED_ShowString
 824              	.LVL101:
 180:Core/Src/keyboard.c ****          
 825              		.loc 1 180 9 view .LVU196
 826 041a 0221     		movs	r1, #2
 827 041c 0548     		ldr	r0, .L53+4
 828 041e FFF7FEFF 		bl	HAL_GPIO_TogglePin
 829              	.LVL102:
 182:Core/Src/keyboard.c ****     }
 830              		.loc 1 182 9 view .LVU197
 831              	.L33:
 182:Core/Src/keyboard.c ****     }
 832              		.loc 1 182 52 discriminator 1 view .LVU198
 182:Core/Src/keyboard.c ****     }
 833              		.loc 1 182 14 discriminator 1 view .LVU199
 182:Core/Src/keyboard.c ****     }
 834              		.loc 1 182 15 is_stmt 0 discriminator 1 view .LVU200
 835 0422 8021     		movs	r1, #128
 836 0424 0448     		ldr	r0, .L53+8
 837 0426 FFF7FEFF 		bl	HAL_GPIO_ReadPin
 838              	.LVL103:
 182:Core/Src/keyboard.c ****     }
 839              		.loc 1 182 14 discriminator 1 view .LVU201
 840 042a 0028     		cmp	r0, #0
 841 042c F9D0     		beq	.L33
 842 042e 7FE6     		b	.L32
 843              	.L54:
 844              		.align	2
 845              	.L53:
 846 0430 58000000 		.word	.LC11
 847 0434 000C0140 		.word	1073810432
 848 0438 00080140 		.word	1073809408
ARM GAS  C:\Users\lenovo\AppData\Local\Temp\cco9DH6X.s 			page 22


 849 043c 60000000 		.word	.LC12
 850 0440 68000000 		.word	.LC13
 851 0444 70000000 		.word	.LC14
 852 0448 78000000 		.word	.LC15
 853              		.cfi_endproc
 854              	.LFE65:
 856              		.text
 857              	.Letext0:
 858              		.file 2 "c:\\program files (x86)\\gnu arm embedded toolchain\\10 2021.07\\arm-none-eabi\\include\\
 859              		.file 3 "c:\\program files (x86)\\gnu arm embedded toolchain\\10 2021.07\\arm-none-eabi\\include\\
 860              		.file 4 "Drivers/CMSIS/Device/ST/STM32F1xx/Include/stm32f102xb.h"
 861              		.file 5 "Drivers/STM32F1xx_HAL_Driver/Inc/stm32f1xx_hal_gpio.h"
 862              		.file 6 "Core/Inc/oled.h"
 863              		.file 7 "Drivers/STM32F1xx_HAL_Driver/Inc/stm32f1xx_hal.h"
 864              		.file 8 "Drivers/CMSIS/Device/ST/STM32F1xx/Include/stm32f1xx.h"
ARM GAS  C:\Users\lenovo\AppData\Local\Temp\cco9DH6X.s 			page 23


DEFINED SYMBOLS
                            *ABS*:00000000 keyboard.c
C:\Users\lenovo\AppData\Local\Temp\cco9DH6X.s:16     .rodata.KEY_Scan.str1.4:00000000 $d
C:\Users\lenovo\AppData\Local\Temp\cco9DH6X.s:65     .text.KEY_Scan:00000000 $t
C:\Users\lenovo\AppData\Local\Temp\cco9DH6X.s:73     .text.KEY_Scan:00000000 KEY_Scan
C:\Users\lenovo\AppData\Local\Temp\cco9DH6X.s:665    .text.KEY_Scan:00000320 $d
C:\Users\lenovo\AppData\Local\Temp\cco9DH6X.s:680    .text.KEY_Scan:00000354 $t
C:\Users\lenovo\AppData\Local\Temp\cco9DH6X.s:846    .text.KEY_Scan:00000430 $d

UNDEFINED SYMBOLS
HAL_GPIO_WritePin
HAL_GPIO_ReadPin
OLED_Clear
HAL_Delay
OLED_ShowString
HAL_GPIO_TogglePin
